; Function Attrs: cold nounwind optsize uwtable
define internal range(i32 -12, 1) i32 @svq1_decode_init(ptr noundef captures(none) %0) #0 {
  %2 = getelementptr inbounds nuw i8, ptr %0, i64 32
  %3 = load ptr, ptr %2, align 8, !tbaa !4
  %4 = tail call ptr @av_frame_alloc() #9
  %5 = getelementptr inbounds nuw i8, ptr %3, i64 448
  store ptr %4, ptr %5, align 8, !tbaa !27
  %.not = icmp eq ptr %4, null
  br i1 %.not, label %22, label %6

6:                                                ; preds = %1
  %7 = getelementptr inbounds nuw i8, ptr %0, i64 112
  %8 = load i32, ptr %7, align 8, !tbaa !33
  %9 = add nsw i32 %8, 3
  %10 = and i32 %9, -4
  %11 = getelementptr inbounds nuw i8, ptr %3, i64 484
  store i32 %10, ptr %11, align 4, !tbaa !34
  %12 = getelementptr inbounds nuw i8, ptr %0, i64 116
  %13 = load i32, ptr %12, align 4, !tbaa !35
  %14 = add nsw i32 %13, 3
  %15 = and i32 %14, -4
  %16 = getelementptr inbounds nuw i8, ptr %3, i64 488
  store i32 %15, ptr %16, align 8, !tbaa !36
  %17 = getelementptr inbounds nuw i8, ptr %0, i64 136
  store i32 6, ptr %17, align 8, !tbaa !37
  %18 = getelementptr inbounds nuw i8, ptr %0, i64 64
  %19 = load i32, ptr %18, align 8, !tbaa !38
  tail call void @ff_hpeldsp_init(ptr noundef nonnull %3, i32 noundef %19) #9
  %20 = tail call i32 @pthread_once(ptr noundef nonnull @svq1_decode_init.init_static_once, ptr noundef nonnull @svq1_static_init) #9
  %21 = getelementptr inbounds nuw i8, ptr %3, i64 500
  store i32 255, ptr %21, align 4, !tbaa !39
  br label %22

22:                                               ; preds = %1, %6
  %.0 = phi i32 [ 0, %6 ], [ -12, %1 ]
  ret i32 %.0
}